; ModuleID = '14/1080.c'
source_filename = "14/1080.c"
target datalayout = "e-m:e-p270:32:32-p271:32:32-p272:64:64-i64:64-f80:128-n8:16:32:64-S128"
target triple = "x86_64-pc-linux-gnu"

%struct.student = type { i32, i32, i32 }

@.str = private unnamed_addr constant [3 x i8] c"%d\00", align 1
@.str.1 = private unnamed_addr constant [7 x i8] c"%d %d\0A\00", align 1

; Function Attrs: noinline nounwind uwtable
define dso_local i32 @main() #0 {
  %1 = alloca i32, align 4
  %2 = alloca [100000 x %struct.student], align 16
  %3 = alloca [100000 x i32], align 16
  %4 = alloca i32, align 4
  %5 = alloca i32, align 4
  %6 = alloca i32, align 4
  %7 = alloca i32, align 4
  %8 = alloca i32, align 4
  %9 = alloca i32, align 4
  %10 = alloca i32, align 4
  %11 = alloca i32, align 4
  %12 = alloca i32, align 4
  store i32 0, i32* %1, align 4
  %13 = call i32 (i8*, ...) @__isoc99_scanf(i8* getelementptr inbounds ([3 x i8], [3 x i8]* @.str, i64 0, i64 0), i32* %4)
  store i32 0, i32* %5, align 4
  br label %14

14:                                               ; preds = %48, %0
  %15 = load i32, i32* %5, align 4
  %16 = load i32, i32* %4, align 4
  %17 = icmp slt i32 %15, %16
  br i1 %17, label %18, label %51

18:                                               ; preds = %14
  %19 = load i32, i32* %5, align 4
  %20 = sext i32 %19 to i64
  %21 = getelementptr inbounds [100000 x %struct.student], [100000 x %struct.student]* %2, i64 0, i64 %20
  %22 = getelementptr inbounds %struct.student, %struct.student* %21, i32 0, i32 0
  %23 = call i32 (i8*, ...) @__isoc99_scanf(i8* getelementptr inbounds ([3 x i8], [3 x i8]* @.str, i64 0, i64 0), i32* %22)
  %24 = load i32, i32* %5, align 4
  %25 = sext i32 %24 to i64
  %26 = getelementptr inbounds [100000 x %struct.student], [100000 x %struct.student]* %2, i64 0, i64 %25
  %27 = getelementptr inbounds %struct.student, %struct.student* %26, i32 0, i32 1
  %28 = call i32 (i8*, ...) @__isoc99_scanf(i8* getelementptr inbounds ([3 x i8], [3 x i8]* @.str, i64 0, i64 0), i32* %27)
  %29 = load i32, i32* %5, align 4
  %30 = sext i32 %29 to i64
  %31 = getelementptr inbounds [100000 x %struct.student], [100000 x %struct.student]* %2, i64 0, i64 %30
  %32 = getelementptr inbounds %struct.student, %struct.student* %31, i32 0, i32 2
  %33 = call i32 (i8*, ...) @__isoc99_scanf(i8* getelementptr inbounds ([3 x i8], [3 x i8]* @.str, i64 0, i64 0), i32* %32)
  %34 = load i32, i32* %5, align 4
  %35 = sext i32 %34 to i64
  %36 = getelementptr inbounds [100000 x %struct.student], [100000 x %struct.student]* %2, i64 0, i64 %35
  %37 = getelementptr inbounds %struct.student, %struct.student* %36, i32 0, i32 1
  %38 = load i32, i32* %37, align 4
  %39 = load i32, i32* %5, align 4
  %40 = sext i32 %39 to i64
  %41 = getelementptr inbounds [100000 x %struct.student], [100000 x %struct.student]* %2, i64 0, i64 %40
  %42 = getelementptr inbounds %struct.student, %struct.student* %41, i32 0, i32 2
  %43 = load i32, i32* %42, align 4
  %44 = add nsw i32 %38, %43
  %45 = load i32, i32* %5, align 4
  %46 = sext i32 %45 to i64
  %47 = getelementptr inbounds [100000 x i32], [100000 x i32]* %3, i64 0, i64 %46
  store i32 %44, i32* %47, align 4
  br label %48

48:                                               ; preds = %18
  %49 = load i32, i32* %5, align 4
  %50 = add nsw i32 %49, 1
  store i32 %50, i32* %5, align 4
  br label %14

51:                                               ; preds = %14
  store i32 0, i32* %6, align 4
  store i32 0, i32* %7, align 4
  store i32 0, i32* %8, align 4
  store i32 0, i32* %9, align 4
  store i32 0, i32* %10, align 4
  store i32 0, i32* %11, align 4
  store i32 0, i32* %12, align 4
  br label %52

52:                                               ; preds = %104, %51
  %53 = load i32, i32* %12, align 4
  %54 = load i32, i32* %4, align 4
  %55 = icmp slt i32 %53, %54
  br i1 %55, label %56, label %107

56:                                               ; preds = %52
  %57 = load i32, i32* %12, align 4
  %58 = sext i32 %57 to i64
  %59 = getelementptr inbounds [100000 x i32], [100000 x i32]* %3, i64 0, i64 %58
  %60 = load i32, i32* %59, align 4
  %61 = load i32, i32* %6, align 4
  %62 = icmp sgt i32 %60, %61
  br i1 %62, label %63, label %73

63:                                               ; preds = %56
  %64 = load i32, i32* %7, align 4
  store i32 %64, i32* %8, align 4
  %65 = load i32, i32* %10, align 4
  store i32 %65, i32* %11, align 4
  %66 = load i32, i32* %6, align 4
  store i32 %66, i32* %7, align 4
  %67 = load i32, i32* %9, align 4
  store i32 %67, i32* %10, align 4
  %68 = load i32, i32* %12, align 4
  %69 = sext i32 %68 to i64
  %70 = getelementptr inbounds [100000 x i32], [100000 x i32]* %3, i64 0, i64 %69
  %71 = load i32, i32* %70, align 4
  store i32 %71, i32* %6, align 4
  %72 = load i32, i32* %12, align 4
  store i32 %72, i32* %9, align 4
  br label %103

73:                                               ; preds = %56
  %74 = load i32, i32* %12, align 4
  %75 = sext i32 %74 to i64
  %76 = getelementptr inbounds [100000 x i32], [100000 x i32]* %3, i64 0, i64 %75
  %77 = load i32, i32* %76, align 4
  %78 = load i32, i32* %7, align 4
  %79 = icmp sgt i32 %77, %78
  br i1 %79, label %80, label %88

80:                                               ; preds = %73
  %81 = load i32, i32* %7, align 4
  store i32 %81, i32* %8, align 4
  %82 = load i32, i32* %10, align 4
  store i32 %82, i32* %11, align 4
  %83 = load i32, i32* %12, align 4
  %84 = sext i32 %83 to i64
  %85 = getelementptr inbounds [100000 x i32], [100000 x i32]* %3, i64 0, i64 %84
  %86 = load i32, i32* %85, align 4
  store i32 %86, i32* %7, align 4
  %87 = load i32, i32* %12, align 4
  store i32 %87, i32* %10, align 4
  br label %102

88:                                               ; preds = %73
  %89 = load i32, i32* %12, align 4
  %90 = sext i32 %89 to i64
  %91 = getelementptr inbounds [100000 x i32], [100000 x i32]* %3, i64 0, i64 %90
  %92 = load i32, i32* %91, align 4
  %93 = load i32, i32* %8, align 4
  %94 = icmp sgt i32 %92, %93
  br i1 %94, label %95, label %101

95:                                               ; preds = %88
  %96 = load i32, i32* %12, align 4
  %97 = sext i32 %96 to i64
  %98 = getelementptr inbounds [100000 x i32], [100000 x i32]* %3, i64 0, i64 %97
  %99 = load i32, i32* %98, align 4
  store i32 %99, i32* %8, align 4
  %100 = load i32, i32* %12, align 4
  store i32 %100, i32* %11, align 4
  br label %101

101:                                              ; preds = %95, %88
  br label %102

102:                                              ; preds = %101, %80
  br label %103

103:                                              ; preds = %102, %63
  br label %104

104:                                              ; preds = %103
  %105 = load i32, i32* %12, align 4
  %106 = add nsw i32 %105, 1
  store i32 %106, i32* %12, align 4
  br label %52

107:                                              ; preds = %52
  %108 = load i32, i32* %9, align 4
  %109 = sext i32 %108 to i64
  %110 = getelementptr inbounds [100000 x %struct.student], [100000 x %struct.student]* %2, i64 0, i64 %109
  %111 = getelementptr inbounds %struct.student, %struct.student* %110, i32 0, i32 0
  %112 = load i32, i32* %111, align 4
  %113 = load i32, i32* %6, align 4
  %114 = call i32 (i8*, ...) @printf(i8* getelementptr inbounds ([7 x i8], [7 x i8]* @.str.1, i64 0, i64 0), i32 %112, i32 %113)
  %115 = load i32, i32* %10, align 4
  %116 = sext i32 %115 to i64
  %117 = getelementptr inbounds [100000 x %struct.student], [100000 x %struct.student]* %2, i64 0, i64 %116
  %118 = getelementptr inbounds %struct.student, %struct.student* %117, i32 0, i32 0
  %119 = load i32, i32* %118, align 4
  %120 = load i32, i32* %7, align 4
  %121 = call i32 (i8*, ...) @printf(i8* getelementptr inbounds ([7 x i8], [7 x i8]* @.str.1, i64 0, i64 0), i32 %119, i32 %120)
  %122 = load i32, i32* %11, align 4
  %123 = sext i32 %122 to i64
  %124 = getelementptr inbounds [100000 x %struct.student], [100000 x %struct.student]* %2, i64 0, i64 %123
  %125 = getelementptr inbounds %struct.student, %struct.student* %124, i32 0, i32 0
  %126 = load i32, i32* %125, align 4
  %127 = load i32, i32* %8, align 4
  %128 = call i32 (i8*, ...) @printf(i8* getelementptr inbounds ([7 x i8], [7 x i8]* @.str.1, i64 0, i64 0), i32 %126, i32 %127)
  %129 = call i32 @getchar()
  %130 = call i32 @getchar()
  %131 = load i32, i32* %1, align 4
  ret i32 %131
}

declare dso_local i32 @__isoc99_scanf(i8*, ...) #1

declare dso_local i32 @printf(i8*, ...) #1

declare dso_local i32 @getchar() #1


!llvm.module.flags = !{!0}
!llvm.ident = !{!1}

!0 = !{i32 1, !"wchar_size", i32 4}
!1 = !{!"clang version 10.0.0-4ubuntu1 "}
